; Function Attrs: nounwind uwtable
define ptr @l_Lean_Server_RequestM_findCmdParsedSnap(ptr noundef %0, ptr noundef %1) local_unnamed_addr #1 {
  %3 = ptrtoint ptr %1 to i64
  %4 = and i64 %3, 1
  %.not = icmp eq i64 %4, 0
  br i1 %.not, label %5, label %lean_inc.exit

5:                                                ; preds = %2
  %.val.i = load i32, ptr %1, align 4, !tbaa !4
  %6 = icmp sgt i32 %.val.i, 0
  br i1 %6, label %7, label %9, !prof !11

7:                                                ; preds = %5
  %8 = add nuw i32 %.val.i, 1
  store i32 %8, ptr %1, align 4, !tbaa !4
  br label %lean_inc.exit

9:                                                ; preds = %5
  %.not.i = icmp eq i32 %.val.i, 0
  br i1 %.not.i, label %lean_inc.exit, label %10

10:                                               ; preds = %9
  tail call void @lean_inc_ref_cold(ptr noundef nonnull %1) #6
  br label %lean_inc.exit

lean_inc.exit:                                    ; preds = %10, %9, %7, %2
  tail call void @lean_inc_heartbeat() #6
  %11 = tail call noalias ptr @mi_malloc_small(i64 noundef 24) #6
  %12 = icmp eq ptr %11, null
  br i1 %12, label %13, label %lean_alloc_ctor.exit

13:                                               ; preds = %lean_inc.exit
  tail call void @lean_internal_panic_out_of_memory() #7
  unreachable

lean_alloc_ctor.exit:                             ; preds = %lean_inc.exit
  %14 = getelementptr inbounds nuw i8, ptr %11, i64 4
  store i32 1, ptr %11, align 4, !tbaa !4
  store i32 131096, ptr %14, align 4
  %15 = getelementptr inbounds nuw i8, ptr %11, i64 8
  store ptr %1, ptr %15, align 8, !tbaa !9
  %16 = getelementptr inbounds nuw i8, ptr %11, i64 16
  store ptr %1, ptr %16, align 8, !tbaa !9
  %17 = tail call ptr @l_Lean_Server_RequestM_findCmdParsedSnaps(ptr noundef %0, ptr noundef nonnull %11)
  %18 = load ptr, ptr @l_Lean_Server_RequestM_findCmdParsedSnap___closed__1, align 8, !tbaa !9
  %19 = load ptr, ptr @l_Task_Priority_default, align 8, !tbaa !9
  %20 = ptrtoint ptr %19 to i64
  %21 = lshr i64 %20, 1
  %22 = trunc i64 %21 to i32
  %23 = tail call ptr @lean_task_map_core(ptr noundef %18, ptr noundef %17, i32 noundef %22, i1 noundef zeroext true, i1 noundef zeroext false) #6
  ret ptr %23
}